
========================================================================

** ELF Header Information

    File Name: E:\Èí¼þ\I2S\I2S_TI_UDR\chip2\prj\LMCM32401-Program\Project\Objects\Template.axf

    Machine class: ELFCLASS32 (32-bit)
    Data encoding: ELFDATA2LSB (Little endian)
    Header version: EV_CURRENT (Current version)
    Operating System ABI: none
    ABI Version: 0
    File Type: ET_EXEC (Executable) (2)
    Machine: EM_ARM (ARM)

    Image Entry point: 0x08000195
    Flags: EF_ARM_HASENTRY (0x05000002)

    ARM ELF revision: 5 (ABI version 2)

    Conforms to Base float procedure-call standard

    Built with
    Component: ARM Compiler 5.06 update 5 (build 528) Tool: armasm [4d35e1]
    Component: ARM Compiler 5.06 update 5 (build 528) Tool: armlink [4d35e2]

    Header size: 52 bytes (0x34)
    Program header entry size: 32 bytes (0x20)
    Section header entry size: 40 bytes (0x28)

    Program header entries: 1
    Section header entries: 16

    Program header offset: 518168 (0x0007e818)
    Section header offset: 518200 (0x0007e838)

    Section header string table index: 15

========================================================================

** Program header #0 (PT_LOAD) [PF_X + PF_W + PF_R + PF_ARM_ENTRY]
    Size : 7356 bytes (3260 bytes in file)
    Virtual address: 0x08000000 (Alignment 8)


========================================================================

** Section #1 'ER_IROM1' (SHT_PROGBITS) [SHF_ALLOC + SHF_EXECINSTR]
    Size   : 3244 bytes (alignment 4)
    Address: 0x08000000

    $d.realdata
    RESET
    __Vectors
        0x08000000:    20001010    ...     DCD    536875024
        0x08000004:    080001a9    ....    DCD    134218153
        0x08000008:    08000377    w...    DCD    134218615
        0x0800000c:    0800036f    o...    DCD    134218607
        0x08000010:    08000373    s...    DCD    134218611
        0x08000014:    08000293    ....    DCD    134218387
        0x08000018:    0800068d    ....    DCD    134219405
        0x0800001c:    00000000    ....    DCD    0
        0x08000020:    00000000    ....    DCD    0
        0x08000024:    00000000    ....    DCD    0
        0x08000028:    00000000    ....    DCD    0
        0x0800002c:    08000479    y...    DCD    134218873
        0x08000030:    08000297    ....    DCD    134218391
        0x08000034:    00000000    ....    DCD    0
        0x08000038:    080003f1    ....    DCD    134218737
        0x0800003c:    08000575    u...    DCD    134219125
        0x08000040:    080001c3    ....    DCD    134218179
        0x08000044:    080001c3    ....    DCD    134218179
        0x08000048:    080001c3    ....    DCD    134218179
        0x0800004c:    080001c3    ....    DCD    134218179
        0x08000050:    080001c3    ....    DCD    134218179
        0x08000054:    080001c3    ....    DCD    134218179
        0x08000058:    080001c3    ....    DCD    134218179
        0x0800005c:    080001c3    ....    DCD    134218179
        0x08000060:    080001c3    ....    DCD    134218179
        0x08000064:    080001c3    ....    DCD    134218179
        0x08000068:    080001c3    ....    DCD    134218179
        0x0800006c:    080001c3    ....    DCD    134218179
        0x08000070:    080001c3    ....    DCD    134218179
        0x08000074:    080001c3    ....    DCD    134218179
        0x08000078:    080001c3    ....    DCD    134218179
        0x0800007c:    080001c3    ....    DCD    134218179
        0x08000080:    080001c3    ....    DCD    134218179
        0x08000084:    080001c3    ....    DCD    134218179
        0x08000088:    080001c3    ....    DCD    134218179
        0x0800008c:    00000000    ....    DCD    0
        0x08000090:    00000000    ....    DCD    0
        0x08000094:    00000000    ....    DCD    0
        0x08000098:    00000000    ....    DCD    0
        0x0800009c:    080001c3    ....    DCD    134218179
        0x080000a0:    080001c3    ....    DCD    134218179
        0x080000a4:    080001c3    ....    DCD    134218179
        0x080000a8:    080001c3    ....    DCD    134218179
        0x080000ac:    080001c3    ....    DCD    134218179
        0x080000b0:    080001c3    ....    DCD    134218179
        0x080000b4:    080001c3    ....    DCD    134218179
        0x080000b8:    080001c3    ....    DCD    134218179
        0x080000bc:    080001c3    ....    DCD    134218179
        0x080000c0:    080001c3    ....    DCD    134218179
        0x080000c4:    080001c3    ....    DCD    134218179
        0x080000c8:    080001c3    ....    DCD    134218179
        0x080000cc:    080001c3    ....    DCD    134218179
        0x080000d0:    080003f5    ....    DCD    134218741
        0x080000d4:    080001c3    ....    DCD    134218179
        0x080000d8:    080001c3    ....    DCD    134218179
        0x080000dc:    00000000    ....    DCD    0
        0x080000e0:    080001c3    ....    DCD    134218179
        0x080000e4:    080001c3    ....    DCD    134218179
        0x080000e8:    080001c3    ....    DCD    134218179
        0x080000ec:    00000000    ....    DCD    0
        0x080000f0:    00000000    ....    DCD    0
        0x080000f4:    00000000    ....    DCD    0
        0x080000f8:    00000000    ....    DCD    0
        0x080000fc:    080001c3    ....    DCD    134218179
        0x08000100:    00000000    ....    DCD    0
        0x08000104:    080001c3    ....    DCD    134218179
        0x08000108:    080001c3    ....    DCD    134218179
        0x0800010c:    080001c3    ....    DCD    134218179
        0x08000110:    00000000    ....    DCD    0
        0x08000114:    00000000    ....    DCD    0
        0x08000118:    00000000    ....    DCD    0
        0x0800011c:    00000000    ....    DCD    0
        0x08000120:    080001c3    ....    DCD    134218179
        0x08000124:    080001c3    ....    DCD    134218179
        0x08000128:    080001c3    ....    DCD    134218179
        0x0800012c:    080001c3    ....    DCD    134218179
        0x08000130:    080001c3    ....    DCD    134218179
        0x08000134:    00000000    ....    DCD    0
        0x08000138:    00000000    ....    DCD    0
        0x0800013c:    00000000    ....    DCD    0
        0x08000140:    00000000    ....    DCD    0
        0x08000144:    00000000    ....    DCD    0
        0x08000148:    00000000    ....    DCD    0
        0x0800014c:    080001c3    ....    DCD    134218179
        0x08000150:    080001c3    ....    DCD    134218179
        0x08000154:    080001c3    ....    DCD    134218179
        0x08000158:    080001c3    ....    DCD    134218179
        0x0800015c:    080001c3    ....    DCD    134218179
        0x08000160:    080001c3    ....    DCD    134218179
        0x08000164:    080001c3    ....    DCD    134218179
        0x08000168:    00000000    ....    DCD    0
        0x0800016c:    00000000    ....    DCD    0
        0x08000170:    00000000    ....    DCD    0
        0x08000174:    00000000    ....    DCD    0
        0x08000178:    00000000    ....    DCD    0
        0x0800017c:    00000000    ....    DCD    0
        0x08000180:    00000000    ....    DCD    0
        0x08000184:    080001c3    ....    DCD    134218179
        0x08000188:    00000000    ....    DCD    0
        0x0800018c:    00000000    ....    DCD    0
        0x08000190:    080001c3    ....    DCD    134218179
    $t
    .ARM.Collect$$$$00000000
    .ARM.Collect$$$$00000001
    __Vectors_End
    __main
    _main_stk
        0x08000194:    f8dfd00c    ....    LDR      sp,__lit__00000000 ; [0x80001a4] = 0x20001010
    .ARM.Collect$$$$00000004
    _main_scatterload
        0x08000198:    f000f84a    ..J.    BL       __scatterload ; 0x8000230
    .ARM.Collect$$$$00000008
    .ARM.Collect$$$$0000000A
    .ARM.Collect$$$$0000000B
    __main_after_scatterload
    _main_clock
    _main_cpp_init
    _main_init
        0x0800019c:    4800        .H      LDR      r0,[pc,#0] ; [0x80001a0] = 0x8000b41
        0x0800019e:    4700        .G      BX       r0
    $d
        0x080001a0:    08000b41    A...    DCD    134220609
    .ARM.Collect$$$$00002712
    __lit__00000000
    .ARM.Collect$$$$0000000D
    .ARM.Collect$$$$0000000F
    __rt_final_cpp
    __rt_final_exit
        0x080001a4:    20001010    ...     DCD    536875024
    $t
    .text
    $v0
    Reset_Handler
        0x080001a8:    4806        .H      LDR      r0,[pc,#24] ; [0x80001c4] = 0x8000579
        0x080001aa:    4780        .G      BLX      r0
        0x080001ac:    4806        .H      LDR      r0,[pc,#24] ; [0x80001c8] = 0x8000195
        0x080001ae:    4700        .G      BX       r0
        0x080001b0:    e7fe        ..      B        0x80001b0 ; Reset_Handler + 8
        0x080001b2:    e7fe        ..      B        0x80001b2 ; Reset_Handler + 10
        0x080001b4:    e7fe        ..      B        0x80001b4 ; Reset_Handler + 12
        0x080001b6:    e7fe        ..      B        0x80001b6 ; Reset_Handler + 14
        0x080001b8:    e7fe        ..      B        0x80001b8 ; Reset_Handler + 16
        0x080001ba:    e7fe        ..      B        0x80001ba ; Reset_Handler + 18
        0x080001bc:    e7fe        ..      B        0x80001bc ; Reset_Handler + 20
        0x080001be:    e7fe        ..      B        0x80001be ; Reset_Handler + 22
        0x080001c0:    e7fe        ..      B        0x80001c0 ; Reset_Handler + 24
    ADC_IRQHandler
    DMA1_Stream0_IRQHandler
    DMA1_Stream1_IRQHandler
    DMA1_Stream2_IRQHandler
    DMA1_Stream3_IRQHandler
    DMA1_Stream4_IRQHandler
    DMA1_Stream5_IRQHandler
    DMA1_Stream6_IRQHandler
    DMA1_Stream7_IRQHandler
    DMA2_Stream0_IRQHandler
    DMA2_Stream1_IRQHandler
    DMA2_Stream2_IRQHandler
    DMA2_Stream3_IRQHandler
    DMA2_Stream4_IRQHandler
    DMA2_Stream5_IRQHandler
    DMA2_Stream6_IRQHandler
    DMA2_Stream7_IRQHandler
    EXTI0_IRQHandler
    EXTI15_10_IRQHandler
    EXTI1_IRQHandler
    EXTI2_IRQHandler
    EXTI3_IRQHandler
    EXTI4_IRQHandler
    EXTI9_5_IRQHandler
    FLASH_IRQHandler
    FPU_IRQHandler
    I2C1_ER_IRQHandler
    I2C1_EV_IRQHandler
    I2C2_ER_IRQHandler
    I2C2_EV_IRQHandler
    I2C3_ER_IRQHandler
    I2C3_EV_IRQHandler
    OTG_FS_IRQHandler
    OTG_FS_WKUP_IRQHandler
    PVD_IRQHandler
    RCC_IRQHandler
    RTC_Alarm_IRQHandler
    RTC_WKUP_IRQHandler
    SDIO_IRQHandler
    SPI1_IRQHandler
    SPI3_IRQHandler
    SPI4_IRQHandler
    TAMP_STAMP_IRQHandler
    TIM1_BRK_TIM9_IRQHandler
    TIM1_CC_IRQHandler
    TIM1_TRG_COM_TIM11_IRQHandler
    TIM1_UP_TIM10_IRQHandler
    TIM2_IRQHandler
    TIM3_IRQHandler
    TIM4_IRQHandler
    TIM5_IRQHandler
    USART1_IRQHandler
    USART2_IRQHandler
    USART6_IRQHandler
    WWDG_IRQHandler
        0x080001c2:    e7fe        ..      B        ADC_IRQHandler ; 0x80001c2
    $d
        0x080001c4:    08000579    y...    DCD    134219129
        0x080001c8:    08000195    ....    DCD    134218133
    $t
    .text
    __aeabi_uldivmod
        0x080001cc:    e92d5ff0    -.._    PUSH     {r4-r12,lr}
        0x080001d0:    4605        .F      MOV      r5,r0
        0x080001d2:    2000        .       MOVS     r0,#0
        0x080001d4:    4692        .F      MOV      r10,r2
        0x080001d6:    469b        .F      MOV      r11,r3
        0x080001d8:    4688        .F      MOV      r8,r1
        0x080001da:    4606        .F      MOV      r6,r0
        0x080001dc:    4681        .F      MOV      r9,r0
        0x080001de:    2440        @$      MOVS     r4,#0x40
        0x080001e0:    e01b        ..      B        0x800021a ; __aeabi_uldivmod + 78
        0x080001e2:    4628        (F      MOV      r0,r5
        0x080001e4:    4641        AF      MOV      r1,r8
        0x080001e6:    4647        GF      MOV      r7,r8
        0x080001e8:    4622        "F      MOV      r2,r4
        0x080001ea:    f000f842    ..B.    BL       __aeabi_llsr ; 0x8000272
        0x080001ee:    4653        SF      MOV      r3,r10
        0x080001f0:    465a        ZF      MOV      r2,r11
        0x080001f2:    1ac0        ..      SUBS     r0,r0,r3
        0x080001f4:    4191        .A      SBCS     r1,r1,r2
        0x080001f6:    d310        ..      BCC      0x800021a ; __aeabi_uldivmod + 78
        0x080001f8:    4611        .F      MOV      r1,r2
        0x080001fa:    4618        .F      MOV      r0,r3
        0x080001fc:    4622        "F      MOV      r2,r4
        0x080001fe:    f000f829    ..).    BL       __aeabi_llsl ; 0x8000254
        0x08000202:    1a2d        -.      SUBS     r5,r5,r0
        0x08000204:    eb670801    g...    SBC      r8,r7,r1
        0x08000208:    464f        OF      MOV      r7,r9
        0x0800020a:    4622        "F      MOV      r2,r4
        0x0800020c:    2001        .       MOVS     r0,#1
        0x0800020e:    2100        .!      MOVS     r1,#0
        0x08000210:    f000f820    .. .    BL       __aeabi_llsl ; 0x8000254
        0x08000214:    eb170900    ....    ADDS     r9,r7,r0
        0x08000218:    414e        NA      ADCS     r6,r6,r1
        0x0800021a:    1e20         .      SUBS     r0,r4,#0
        0x0800021c:    f1a40401    ....    SUB      r4,r4,#1
        0x08000220:    dcdf        ..      BGT      0x80001e2 ; __aeabi_uldivmod + 22
        0x08000222:    4648        HF      MOV      r0,r9
        0x08000224:    4631        1F      MOV      r1,r6
        0x08000226:    462a        *F      MOV      r2,r5
        0x08000228:    4643        CF      MOV      r3,r8
        0x0800022a:    e8bd9ff0    ....    POP      {r4-r12,pc}
        0x0800022e:    0000        ..      MOVS     r0,r0
    .text
    __scatterload
    __scatterload_rt2
        0x08000230:    4c06        .L      LDR      r4,[pc,#24] ; [0x800024c] = 0x8000c8c
        0x08000232:    4d07        .M      LDR      r5,[pc,#28] ; [0x8000250] = 0x8000cac
        0x08000234:    e006        ..      B        0x8000244 ; __scatterload + 20
        0x08000236:    68e0        .h      LDR      r0,[r4,#0xc]
        0x08000238:    f0400301    @...    ORR      r3,r0,#1
        0x0800023c:    e8940007    ....    LDM      r4,{r0-r2}
        0x08000240:    4798        .G      BLX      r3
        0x08000242:    3410        .4      ADDS     r4,r4,#0x10
        0x08000244:    42ac        .B      CMP      r4,r5
        0x08000246:    d3f6        ..      BCC      0x8000236 ; __scatterload + 6
        0x08000248:    f7ffffa8    ....    BL       __main_after_scatterload ; 0x800019c
    $d
        0x0800024c:    08000c8c    ....    DCD    134220940
        0x08000250:    08000cac    ....    DCD    134220972
    $t
    .text
    __aeabi_llsl
    _ll_shift_l
        0x08000254:    2a20         *      CMP      r2,#0x20
        0x08000256:    db04        ..      BLT      0x8000262 ; __aeabi_llsl + 14
        0x08000258:    3a20         :      SUBS     r2,r2,#0x20
        0x0800025a:    fa00f102    ....    LSL      r1,r0,r2
        0x0800025e:    2000        .       MOVS     r0,#0
        0x08000260:    4770        pG      BX       lr
        0x08000262:    4091        .@      LSLS     r1,r1,r2
        0x08000264:    f1c20320    .. .    RSB      r3,r2,#0x20
        0x08000268:    fa20f303     ...    LSR      r3,r0,r3
        0x0800026c:    4319        .C      ORRS     r1,r1,r3
        0x0800026e:    4090        .@      LSLS     r0,r0,r2
        0x08000270:    4770        pG      BX       lr
    .text
    __aeabi_llsr
    _ll_ushift_r
        0x08000272:    2a20         *      CMP      r2,#0x20
        0x08000274:    db04        ..      BLT      0x8000280 ; __aeabi_llsr + 14
        0x08000276:    3a20         :      SUBS     r2,r2,#0x20
        0x08000278:    fa21f002    !...    LSR      r0,r1,r2
        0x0800027c:    2100        .!      MOVS     r1,#0
        0x0800027e:    4770        pG      BX       lr
        0x08000280:    fa21f302    !...    LSR      r3,r1,r2
        0x08000284:    40d0        .@      LSRS     r0,r0,r2
        0x08000286:    f1c20220    .. .    RSB      r2,r2,#0x20
        0x0800028a:    4091        .@      LSLS     r1,r1,r2
        0x0800028c:    4308        .C      ORRS     r0,r0,r1
        0x0800028e:    4619        .F      MOV      r1,r3
        0x08000290:    4770        pG      BX       lr
    i.BusFault_Handler
    BusFault_Handler
        0x08000292:    bf00        ..      NOP      
        0x08000294:    e7fe        ..      B        0x8000294 ; BusFault_Handler + 2
    i.DebugMon_Handler
    DebugMon_Handler
        0x08000296:    4770        pG      BX       lr
    i.GPIO_Init
    GPIO_Init
        0x08000298:    b5f0        ..      PUSH     {r4-r7,lr}
        0x0800029a:    460a        .F      MOV      r2,r1
        0x0800029c:    2100        .!      MOVS     r1,#0
        0x0800029e:    2300        .#      MOVS     r3,#0
        0x080002a0:    2400        .$      MOVS     r4,#0
        0x080002a2:    bf00        ..      NOP      
        0x080002a4:    e03d        =.      B        0x8000322 ; GPIO_Init + 138
        0x080002a6:    2501        .%      MOVS     r5,#1
        0x080002a8:    fa05f301    ....    LSL      r3,r5,r1
        0x080002ac:    6815        .h      LDR      r5,[r2,#0]
        0x080002ae:    ea050403    ....    AND      r4,r5,r3
        0x080002b2:    429c        .B      CMP      r4,r3
        0x080002b4:    d134        4.      BNE      0x8000320 ; GPIO_Init + 136
        0x080002b6:    6805        .h      LDR      r5,[r0,#0]
        0x080002b8:    004f        O.      LSLS     r7,r1,#1
        0x080002ba:    2603        .&      MOVS     r6,#3
        0x080002bc:    40be        .@      LSLS     r6,r6,r7
        0x080002be:    43b5        .C      BICS     r5,r5,r6
        0x080002c0:    6005        .`      STR      r5,[r0,#0]
        0x080002c2:    7915        .y      LDRB     r5,[r2,#4]
        0x080002c4:    004e        N.      LSLS     r6,r1,#1
        0x080002c6:    40b5        .@      LSLS     r5,r5,r6
        0x080002c8:    6806        .h      LDR      r6,[r0,#0]
        0x080002ca:    4335        5C      ORRS     r5,r5,r6
        0x080002cc:    6005        .`      STR      r5,[r0,#0]
        0x080002ce:    7915        .y      LDRB     r5,[r2,#4]
        0x080002d0:    2d01        .-      CMP      r5,#1
        0x080002d2:    d002        ..      BEQ      0x80002da ; GPIO_Init + 66
        0x080002d4:    7915        .y      LDRB     r5,[r2,#4]
        0x080002d6:    2d02        .-      CMP      r5,#2
        0x080002d8:    d116        ..      BNE      0x8000308 ; GPIO_Init + 112
        0x080002da:    6885        .h      LDR      r5,[r0,#8]
        0x080002dc:    004f        O.      LSLS     r7,r1,#1
        0x080002de:    2603        .&      MOVS     r6,#3
        0x080002e0:    40be        .@      LSLS     r6,r6,r7
        0x080002e2:    43b5        .C      BICS     r5,r5,r6
        0x080002e4:    6085        .`      STR      r5,[r0,#8]
        0x080002e6:    7955        Uy      LDRB     r5,[r2,#5]
        0x080002e8:    004e        N.      LSLS     r6,r1,#1
        0x080002ea:    40b5        .@      LSLS     r5,r5,r6
        0x080002ec:    6886        .h      LDR      r6,[r0,#8]
        0x080002ee:    4335        5C      ORRS     r5,r5,r6
        0x080002f0:    6085        .`      STR      r5,[r0,#8]
        0x080002f2:    6845        Eh      LDR      r5,[r0,#4]
        0x080002f4:    2601        .&      MOVS     r6,#1
        0x080002f6:    408e        .@      LSLS     r6,r6,r1
        0x080002f8:    43b5        .C      BICS     r5,r5,r6
        0x080002fa:    6045        E`      STR      r5,[r0,#4]
        0x080002fc:    6845        Eh      LDR      r5,[r0,#4]
        0x080002fe:    7996        .y      LDRB     r6,[r2,#6]
        0x08000300:    408e        .@      LSLS     r6,r6,r1
        0x08000302:    b2b6        ..      UXTH     r6,r6
        0x08000304:    4335        5C      ORRS     r5,r5,r6
        0x08000306:    6045        E`      STR      r5,[r0,#4]
        0x08000308:    68c5        .h      LDR      r5,[r0,#0xc]
        0x0800030a:    004f        O.      LSLS     r7,r1,#1
        0x0800030c:    2603        .&      MOVS     r6,#3
        0x0800030e:    40be        .@      LSLS     r6,r6,r7
        0x08000310:    43b5        .C      BICS     r5,r5,r6
        0x08000312:    60c5        .`      STR      r5,[r0,#0xc]
        0x08000314:    79d5        .y      LDRB     r5,[r2,#7]
        0x08000316:    004e        N.      LSLS     r6,r1,#1
        0x08000318:    40b5        .@      LSLS     r5,r5,r6
        0x0800031a:    68c6        .h      LDR      r6,[r0,#0xc]
        0x0800031c:    4335        5C      ORRS     r5,r5,r6
        0x0800031e:    60c5        .`      STR      r5,[r0,#0xc]
        0x08000320:    1c49        I.      ADDS     r1,r1,#1
        0x08000322:    2910        .)      CMP      r1,#0x10
        0x08000324:    d3bf        ..      BCC      0x80002a6 ; GPIO_Init + 14
        0x08000326:    bdf0        ..      POP      {r4-r7,pc}
    i.GPIO_PinAFConfig
    GPIO_PinAFConfig
        0x08000328:    b5f0        ..      PUSH     {r4-r7,lr}
        0x0800032a:    2300        .#      MOVS     r3,#0
        0x0800032c:    2400        .$      MOVS     r4,#0
        0x0800032e:    074d        M.      LSLS     r5,r1,#29
        0x08000330:    0eed        ..      LSRS     r5,r5,#27
        0x08000332:    fa02f305    ....    LSL      r3,r2,r5
        0x08000336:    10ce        ..      ASRS     r6,r1,#3
        0x08000338:    f1000520    .. .    ADD      r5,r0,#0x20
        0x0800033c:    f8555026    U.&P    LDR      r5,[r5,r6,LSL #2]
        0x08000340:    074e        N.      LSLS     r6,r1,#29
        0x08000342:    0ef7        ..      LSRS     r7,r6,#27
        0x08000344:    260f        .&      MOVS     r6,#0xf
        0x08000346:    40be        .@      LSLS     r6,r6,r7
        0x08000348:    43b5        .C      BICS     r5,r5,r6
        0x0800034a:    10cf        ..      ASRS     r7,r1,#3
        0x0800034c:    f1000620    .. .    ADD      r6,r0,#0x20
        0x08000350:    f8465027    F.'P    STR      r5,[r6,r7,LSL #2]
        0x08000354:    10ce        ..      ASRS     r6,r1,#3
        0x08000356:    f1000520    .. .    ADD      r5,r0,#0x20
        0x0800035a:    f8555026    U.&P    LDR      r5,[r5,r6,LSL #2]
        0x0800035e:    ea450403    E...    ORR      r4,r5,r3
        0x08000362:    10ce        ..      ASRS     r6,r1,#3
        0x08000364:    f1000520    .. .    ADD      r5,r0,#0x20
        0x08000368:    f8454026    E.&@    STR      r4,[r5,r6,LSL #2]
        0x0800036c:    bdf0        ..      POP      {r4-r7,pc}
    i.HardFault_Handler
    HardFault_Handler
        0x0800036e:    bf00        ..      NOP      
        0x08000370:    e7fe        ..      B        0x8000370 ; HardFault_Handler + 2
    i.MemManage_Handler
    MemManage_Handler
        0x08000372:    bf00        ..      NOP      
        0x08000374:    e7fe        ..      B        0x8000374 ; MemManage_Handler + 2
    i.NMI_Handler
    NMI_Handler
        0x08000376:    4770        pG      BX       lr
    i.NVIC_Init
    NVIC_Init
        0x08000378:    b570        p.      PUSH     {r4-r6,lr}
        0x0800037a:    2100        .!      MOVS     r1,#0
        0x0800037c:    2300        .#      MOVS     r3,#0
        0x0800037e:    220f        ."      MOVS     r2,#0xf
        0x08000380:    78c4        .x      LDRB     r4,[r0,#3]
        0x08000382:    b31c        ..      CBZ      r4,0x80003cc ; NVIC_Init + 84
        0x08000384:    4c17        .L      LDR      r4,[pc,#92] ; [0x80003e4] = 0xe000ed0c
        0x08000386:    6824        $h      LDR      r4,[r4,#0]
        0x08000388:    f40464e0    ...d    AND      r4,r4,#0x700
        0x0800038c:    f5c464e0    ...d    RSB      r4,r4,#0x700
        0x08000390:    f3c42107    ...!    UBFX     r1,r4,#8,#8
        0x08000394:    f1c10404    ....    RSB      r4,r1,#4
        0x08000398:    b2e3        ..      UXTB     r3,r4
        0x0800039a:    410a        .A      ASRS     r2,r2,r1
        0x0800039c:    7844        Dx      LDRB     r4,[r0,#1]
        0x0800039e:    409c        .@      LSLS     r4,r4,r3
        0x080003a0:    b2e1        ..      UXTB     r1,r4
        0x080003a2:    7884        .x      LDRB     r4,[r0,#2]
        0x080003a4:    4014        .@      ANDS     r4,r4,r2
        0x080003a6:    4321        !C      ORRS     r1,r1,r4
        0x080003a8:    070c        ..      LSLS     r4,r1,#28
        0x080003aa:    0e21        !.      LSRS     r1,r4,#24
        0x080003ac:    4c0e        .L      LDR      r4,[pc,#56] ; [0x80003e8] = 0xe000e400
        0x080003ae:    7805        .x      LDRB     r5,[r0,#0]
        0x080003b0:    5561        aU      STRB     r1,[r4,r5]
        0x080003b2:    7804        .x      LDRB     r4,[r0,#0]
        0x080003b4:    f004051f    ....    AND      r5,r4,#0x1f
        0x080003b8:    2401        .$      MOVS     r4,#1
        0x080003ba:    40ac        .@      LSLS     r4,r4,r5
        0x080003bc:    7805        .x      LDRB     r5,[r0,#0]
        0x080003be:    116d        m.      ASRS     r5,r5,#5
        0x080003c0:    00ad        ..      LSLS     r5,r5,#2
        0x080003c2:    f10525e0    ...%    ADD      r5,r5,#0xe000e000
        0x080003c6:    f8c54100    ...A    STR      r4,[r5,#0x100]
        0x080003ca:    e009        ..      B        0x80003e0 ; NVIC_Init + 104
        0x080003cc:    7804        .x      LDRB     r4,[r0,#0]
        0x080003ce:    f004051f    ....    AND      r5,r4,#0x1f
        0x080003d2:    2401        .$      MOVS     r4,#1
        0x080003d4:    40ac        .@      LSLS     r4,r4,r5
        0x080003d6:    4d05        .M      LDR      r5,[pc,#20] ; [0x80003ec] = 0xe000e180
        0x080003d8:    7806        .x      LDRB     r6,[r0,#0]
        0x080003da:    1176        v.      ASRS     r6,r6,#5
        0x080003dc:    f8454026    E.&@    STR      r4,[r5,r6,LSL #2]
        0x080003e0:    bd70        p.      POP      {r4-r6,pc}
    $d
        0x080003e2:    0000        ..      DCW    0
        0x080003e4:    e000ed0c    ....    DCD    3758157068
        0x080003e8:    e000e400    ....    DCD    3758154752
        0x080003ec:    e000e180    ....    DCD    3758154112
    $t
    i.PendSV_Handler
    PendSV_Handler
        0x080003f0:    4770        pG      BX       lr
        0x080003f2:    0000        ..      MOVS     r0,r0
    i.SPI2_IRQHandler
    SPI2_IRQHandler
        0x080003f4:    b510        ..      PUSH     {r4,lr}
        0x080003f6:    4817        .H      LDR      r0,[pc,#92] ; [0x8000454] = 0x40003808
        0x080003f8:    8800        ..      LDRH     r0,[r0,#0]
        0x080003fa:    f0000008    ....    AND      r0,r0,#8
        0x080003fe:    b338        8.      CBZ      r0,0x8000450 ; SPI2_IRQHandler + 92
        0x08000400:    4814        .H      LDR      r0,[pc,#80] ; [0x8000454] = 0x40003808
        0x08000402:    1f00        ..      SUBS     r0,r0,#4
        0x08000404:    8800        ..      LDRH     r0,[r0,#0]
        0x08000406:    f0200008     ...    BIC      r0,r0,#8
        0x0800040a:    4912        .I      LDR      r1,[pc,#72] ; [0x8000454] = 0x40003808
        0x0800040c:    1f09        ..      SUBS     r1,r1,#4
        0x0800040e:    8008        ..      STRH     r0,[r1,#0]
        0x08000410:    4811        .H      LDR      r0,[pc,#68] ; [0x8000458] = 0x20000000
        0x08000412:    6800        .h      LDR      r0,[r0,#0]
        0x08000414:    8880        ..      LDRH     r0,[r0,#4]
        0x08000416:    f0200020     . .    BIC      r0,r0,#0x20
        0x0800041a:    490f        .I      LDR      r1,[pc,#60] ; [0x8000458] = 0x20000000
        0x0800041c:    6809        .h      LDR      r1,[r1,#0]
        0x0800041e:    8088        ..      STRH     r0,[r1,#4]
        0x08000420:    480d        .H      LDR      r0,[pc,#52] ; [0x8000458] = 0x20000000
        0x08000422:    6800        .h      LDR      r0,[r0,#0]
        0x08000424:    8880        ..      LDRH     r0,[r0,#4]
        0x08000426:    f0200040     .@.    BIC      r0,r0,#0x40
        0x0800042a:    490b        .I      LDR      r1,[pc,#44] ; [0x8000458] = 0x20000000
        0x0800042c:    6809        .h      LDR      r1,[r1,#0]
        0x0800042e:    8088        ..      STRH     r0,[r1,#4]
        0x08000430:    4809        .H      LDR      r0,[pc,#36] ; [0x8000458] = 0x20000000
        0x08000432:    6800        .h      LDR      r0,[r0,#0]
        0x08000434:    8b80        ..      LDRH     r0,[r0,#0x1c]
        0x08000436:    f4206080     ..`    BIC      r0,r0,#0x400
        0x0800043a:    4907        .I      LDR      r1,[pc,#28] ; [0x8000458] = 0x20000000
        0x0800043c:    6809        .h      LDR      r1,[r1,#0]
        0x0800043e:    8388        ..      STRH     r0,[r1,#0x1c]
        0x08000440:    a006        ..      ADR      r0,{pc}+0x1c ; 0x800045c
        0x08000442:    f000f925    ..%.    BL       __0printf$8 ; 0x8000690
        0x08000446:    a009        ..      ADR      r0,{pc}+0x26 ; 0x800046c
        0x08000448:    f000f922    ..".    BL       __0printf$8 ; 0x8000690
        0x0800044c:    f000f8c8    ....    BL       UartEndSimulation ; 0x80005e0
        0x08000450:    bd10        ..      POP      {r4,pc}
    $d
        0x08000452:    0000        ..      DCW    0
        0x08000454:    40003808    .8.@    DCD    1073756168
        0x08000458:    20000000    ...     DCD    536870912
        0x0800045c:    20524455    UDR     DCD    542262357
        0x08000460:    70706168    happ    DCD    1886413160
        0x08000464:    0a0d6e65    en..    DCD    168652389
        0x08000468:    00000000    ....    DCD    0
        0x0800046c:    74736574    test    DCD    1953719668
        0x08000470:    73617020     pas    DCD    1935765536
        0x08000474:    000a0d73    s...    DCD    658803
    $t
    i.SVC_Handler
    SVC_Handler
        0x08000478:    4770        pG      BX       lr
        0x0800047a:    0000        ..      MOVS     r0,r0
    i.SetSysClock
    SetSysClock
        0x0800047c:    b50c        ..      PUSH     {r2,r3,lr}
        0x0800047e:    2000        .       MOVS     r0,#0
        0x08000480:    9001        ..      STR      r0,[sp,#4]
        0x08000482:    9000        ..      STR      r0,[sp,#0]
        0x08000484:    4836        6H      LDR      r0,[pc,#216] ; [0x8000560] = 0x40023800
        0x08000486:    6800        .h      LDR      r0,[r0,#0]
        0x08000488:    f4403080    @..0    ORR      r0,r0,#0x10000
        0x0800048c:    4934        4I      LDR      r1,[pc,#208] ; [0x8000560] = 0x40023800
        0x0800048e:    6008        .`      STR      r0,[r1,#0]
        0x08000490:    bf00        ..      NOP      
        0x08000492:    4833        3H      LDR      r0,[pc,#204] ; [0x8000560] = 0x40023800
        0x08000494:    6800        .h      LDR      r0,[r0,#0]
        0x08000496:    f4003000    ...0    AND      r0,r0,#0x20000
        0x0800049a:    9000        ..      STR      r0,[sp,#0]
        0x0800049c:    9801        ..      LDR      r0,[sp,#4]
        0x0800049e:    1c40        @.      ADDS     r0,r0,#1
        0x080004a0:    9001        ..      STR      r0,[sp,#4]
        0x080004a2:    9800        ..      LDR      r0,[sp,#0]
        0x080004a4:    b918        ..      CBNZ     r0,0x80004ae ; SetSysClock + 50
        0x080004a6:    9801        ..      LDR      r0,[sp,#4]
        0x080004a8:    f5b04fa0    ...O    CMP      r0,#0x5000
        0x080004ac:    d1f1        ..      BNE      0x8000492 ; SetSysClock + 22
        0x080004ae:    482c        ,H      LDR      r0,[pc,#176] ; [0x8000560] = 0x40023800
        0x080004b0:    6800        .h      LDR      r0,[r0,#0]
        0x080004b2:    f4003000    ...0    AND      r0,r0,#0x20000
        0x080004b6:    b110        ..      CBZ      r0,0x80004be ; SetSysClock + 66
        0x080004b8:    2001        .       MOVS     r0,#1
        0x080004ba:    9000        ..      STR      r0,[sp,#0]
        0x080004bc:    e001        ..      B        0x80004c2 ; SetSysClock + 70
        0x080004be:    2000        .       MOVS     r0,#0
        0x080004c0:    9000        ..      STR      r0,[sp,#0]
        0x080004c2:    9800        ..      LDR      r0,[sp,#0]
        0x080004c4:    2801        .(      CMP      r0,#1
        0x080004c6:    d149        I.      BNE      0x800055c ; SetSysClock + 224
        0x080004c8:    4825        %H      LDR      r0,[pc,#148] ; [0x8000560] = 0x40023800
        0x080004ca:    3040        @0      ADDS     r0,r0,#0x40
        0x080004cc:    6800        .h      LDR      r0,[r0,#0]
        0x080004ce:    f0405080    @..P    ORR      r0,r0,#0x10000000
        0x080004d2:    4923        #I      LDR      r1,[pc,#140] ; [0x8000560] = 0x40023800
        0x080004d4:    3140        @1      ADDS     r1,r1,#0x40
        0x080004d6:    6008        .`      STR      r0,[r1,#0]
        0x080004d8:    4822        "H      LDR      r0,[pc,#136] ; [0x8000564] = 0x40007000
        0x080004da:    6800        .h      LDR      r0,[r0,#0]
        0x080004dc:    f4404040    @.@@    ORR      r0,r0,#0xc000
        0x080004e0:    4920         I      LDR      r1,[pc,#128] ; [0x8000564] = 0x40007000
        0x080004e2:    6008        .`      STR      r0,[r1,#0]
        0x080004e4:    481e        .H      LDR      r0,[pc,#120] ; [0x8000560] = 0x40023800
        0x080004e6:    3008        .0      ADDS     r0,r0,#8
        0x080004e8:    6800        .h      LDR      r0,[r0,#0]
        0x080004ea:    491d        .I      LDR      r1,[pc,#116] ; [0x8000560] = 0x40023800
        0x080004ec:    3108        .1      ADDS     r1,r1,#8
        0x080004ee:    6008        .`      STR      r0,[r1,#0]
        0x080004f0:    4608        .F      MOV      r0,r1
        0x080004f2:    6800        .h      LDR      r0,[r0,#0]
        0x080004f4:    6008        .`      STR      r0,[r1,#0]
        0x080004f6:    4608        .F      MOV      r0,r1
        0x080004f8:    6800        .h      LDR      r0,[r0,#0]
        0x080004fa:    f4405080    @..P    ORR      r0,r0,#0x1000
        0x080004fe:    6008        .`      STR      r0,[r1,#0]
        0x08000500:    4819        .H      LDR      r0,[pc,#100] ; [0x8000568] = 0x20003000
        0x08000502:    4917        .I      LDR      r1,[pc,#92] ; [0x8000560] = 0x40023800
        0x08000504:    3184        .1      ADDS     r1,r1,#0x84
        0x08000506:    6008        .`      STR      r0,[r1,#0]
        0x08000508:    4818        .H      LDR      r0,[pc,#96] ; [0x800056c] = 0x7415408
        0x0800050a:    4915        .I      LDR      r1,[pc,#84] ; [0x8000560] = 0x40023800
        0x0800050c:    1d09        ..      ADDS     r1,r1,#4
        0x0800050e:    6008        .`      STR      r0,[r1,#0]
        0x08000510:    1f08        ..      SUBS     r0,r1,#4
        0x08000512:    6800        .h      LDR      r0,[r0,#0]
        0x08000514:    f0407080    @..p    ORR      r0,r0,#0x1000000
        0x08000518:    1f09        ..      SUBS     r1,r1,#4
        0x0800051a:    6008        .`      STR      r0,[r1,#0]
        0x0800051c:    bf00        ..      NOP      
        0x0800051e:    4810        .H      LDR      r0,[pc,#64] ; [0x8000560] = 0x40023800
        0x08000520:    6800        .h      LDR      r0,[r0,#0]
        0x08000522:    f0007000    ...p    AND      r0,r0,#0x2000000
        0x08000526:    2800        .(      CMP      r0,#0
        0x08000528:    d0f9        ..      BEQ      0x800051e ; SetSysClock + 162
        0x0800052a:    f2407002    @..p    MOV      r0,#0x702
        0x0800052e:    4910        .I      LDR      r1,[pc,#64] ; [0x8000570] = 0x40023c00
        0x08000530:    6008        .`      STR      r0,[r1,#0]
        0x08000532:    480b        .H      LDR      r0,[pc,#44] ; [0x8000560] = 0x40023800
        0x08000534:    3008        .0      ADDS     r0,r0,#8
        0x08000536:    6800        .h      LDR      r0,[r0,#0]
        0x08000538:    f0200003     ...    BIC      r0,r0,#3
        0x0800053c:    4908        .I      LDR      r1,[pc,#32] ; [0x8000560] = 0x40023800
        0x0800053e:    3108        .1      ADDS     r1,r1,#8
        0x08000540:    6008        .`      STR      r0,[r1,#0]
        0x08000542:    4608        .F      MOV      r0,r1
        0x08000544:    6800        .h      LDR      r0,[r0,#0]
        0x08000546:    f0400002    @...    ORR      r0,r0,#2
        0x0800054a:    6008        .`      STR      r0,[r1,#0]
        0x0800054c:    bf00        ..      NOP      
        0x0800054e:    4804        .H      LDR      r0,[pc,#16] ; [0x8000560] = 0x40023800
        0x08000550:    3008        .0      ADDS     r0,r0,#8
        0x08000552:    6800        .h      LDR      r0,[r0,#0]
        0x08000554:    f000000c    ....    AND      r0,r0,#0xc
        0x08000558:    2808        .(      CMP      r0,#8
        0x0800055a:    d1f8        ..      BNE      0x800054e ; SetSysClock + 210
        0x0800055c:    bd0c        ..      POP      {r2,r3,pc}
    $d
        0x0800055e:    0000        ..      DCW    0
        0x08000560:    40023800    .8.@    DCD    1073887232
        0x08000564:    40007000    .p.@    DCD    1073770496
        0x08000568:    20003000    .0.     DCD    536883200
        0x0800056c:    07415408    .TA.    DCD    121721864
        0x08000570:    40023c00    .<.@    DCD    1073888256
    $t
    i.SysTick_Handler
    SysTick_Handler
        0x08000574:    4770        pG      BX       lr
        0x08000576:    0000        ..      MOVS     r0,r0
    i.SystemInit
    SystemInit
        0x08000578:    b510        ..      PUSH     {r4,lr}
        0x0800057a:    4815        .H      LDR      r0,[pc,#84] ; [0x80005d0] = 0xe000ed88
        0x0800057c:    6800        .h      LDR      r0,[r0,#0]
        0x0800057e:    f4400070    @.p.    ORR      r0,r0,#0xf00000
        0x08000582:    4913        .I      LDR      r1,[pc,#76] ; [0x80005d0] = 0xe000ed88
        0x08000584:    6008        .`      STR      r0,[r1,#0]
        0x08000586:    4813        .H      LDR      r0,[pc,#76] ; [0x80005d4] = 0x40023800
        0x08000588:    6800        .h      LDR      r0,[r0,#0]
        0x0800058a:    f0400001    @...    ORR      r0,r0,#1
        0x0800058e:    4911        .I      LDR      r1,[pc,#68] ; [0x80005d4] = 0x40023800
        0x08000590:    6008        .`      STR      r0,[r1,#0]
        0x08000592:    2000        .       MOVS     r0,#0
        0x08000594:    490f        .I      LDR      r1,[pc,#60] ; [0x80005d4] = 0x40023800
        0x08000596:    3108        .1      ADDS     r1,r1,#8
        0x08000598:    6008        .`      STR      r0,[r1,#0]
        0x0800059a:    480e        .H      LDR      r0,[pc,#56] ; [0x80005d4] = 0x40023800
        0x0800059c:    6800        .h      LDR      r0,[r0,#0]
        0x0800059e:    490e        .I      LDR      r1,[pc,#56] ; [0x80005d8] = 0xfef6ffff
        0x080005a0:    4008        .@      ANDS     r0,r0,r1
        0x080005a2:    490c        .I      LDR      r1,[pc,#48] ; [0x80005d4] = 0x40023800
        0x080005a4:    6008        .`      STR      r0,[r1,#0]
        0x080005a6:    480d        .H      LDR      r0,[pc,#52] ; [0x80005dc] = 0x24003010
        0x080005a8:    1d09        ..      ADDS     r1,r1,#4
        0x080005aa:    6008        .`      STR      r0,[r1,#0]
        0x080005ac:    1f08        ..      SUBS     r0,r1,#4
        0x080005ae:    6800        .h      LDR      r0,[r0,#0]
        0x080005b0:    f4202080     ..     BIC      r0,r0,#0x40000
        0x080005b4:    1f09        ..      SUBS     r1,r1,#4
        0x080005b6:    6008        .`      STR      r0,[r1,#0]
        0x080005b8:    2000        .       MOVS     r0,#0
        0x080005ba:    4906        .I      LDR      r1,[pc,#24] ; [0x80005d4] = 0x40023800
        0x080005bc:    310c        .1      ADDS     r1,r1,#0xc
        0x080005be:    6008        .`      STR      r0,[r1,#0]
        0x080005c0:    f7ffff5c    ..\.    BL       SetSysClock ; 0x800047c
        0x080005c4:    f04f6000    O..`    MOV      r0,#0x8000000
        0x080005c8:    4901        .I      LDR      r1,[pc,#4] ; [0x80005d0] = 0xe000ed88
        0x080005ca:    3980        .9      SUBS     r1,r1,#0x80
        0x080005cc:    6008        .`      STR      r0,[r1,#0]
        0x080005ce:    bd10        ..      POP      {r4,pc}
    $d
        0x080005d0:    e000ed88    ....    DCD    3758157192
        0x080005d4:    40023800    .8.@    DCD    1073887232
        0x080005d8:    fef6ffff    ....    DCD    4277600255
        0x080005dc:    24003010    .0.$    DCD    603992080
    $t
    i.UartEndSimulation
    UartEndSimulation
        0x080005e0:    2004        .       MOVS     r0,#4
        0x080005e2:    f000f803    ....    BL       UartPutc ; 0x80005ec
        0x080005e6:    bf00        ..      NOP      
        0x080005e8:    e7fe        ..      B        0x80005e8 ; UartEndSimulation + 8
        0x080005ea:    0000        ..      MOVS     r0,r0
    i.UartPutc
    UartPutc
        0x080005ec:    bf00        ..      NOP      
        0x080005ee:    4905        .I      LDR      r1,[pc,#20] ; [0x8000604] = 0x40011000
        0x080005f0:    7809        .x      LDRB     r1,[r1,#0]
        0x080005f2:    f0010180    ....    AND      r1,r1,#0x80
        0x080005f6:    2900        .)      CMP      r1,#0
        0x080005f8:    d0f9        ..      BEQ      0x80005ee ; UartPutc + 2
        0x080005fa:    f3c00108    ....    UBFX     r1,r0,#0,#9
        0x080005fe:    4a01        .J      LDR      r2,[pc,#4] ; [0x8000604] = 0x40011000
        0x08000600:    6051        Q`      STR      r1,[r2,#4]
        0x08000602:    4770        pG      BX       lr
    $d
        0x08000604:    40011000    ...@    DCD    1073811456
    $t
    i.UartStdOutInit
    UartStdOutInit
        0x08000608:    481d        .H      LDR      r0,[pc,#116] ; [0x8000680] = 0x40023830
        0x0800060a:    6800        .h      LDR      r0,[r0,#0]
        0x0800060c:    f0400001    @...    ORR      r0,r0,#1
        0x08000610:    491b        .I      LDR      r1,[pc,#108] ; [0x8000680] = 0x40023830
        0x08000612:    6008        .`      STR      r0,[r1,#0]
        0x08000614:    481a        .H      LDR      r0,[pc,#104] ; [0x8000680] = 0x40023830
        0x08000616:    3014        .0      ADDS     r0,r0,#0x14
        0x08000618:    6800        .h      LDR      r0,[r0,#0]
        0x0800061a:    f0400010    @...    ORR      r0,r0,#0x10
        0x0800061e:    4918        .I      LDR      r1,[pc,#96] ; [0x8000680] = 0x40023830
        0x08000620:    3114        .1      ADDS     r1,r1,#0x14
        0x08000622:    6008        .`      STR      r0,[r1,#0]
        0x08000624:    4817        .H      LDR      r0,[pc,#92] ; [0x8000684] = 0x40020000
        0x08000626:    6a40        @j      LDR      r0,[r0,#0x24]
        0x08000628:    f0400070    @.p.    ORR      r0,r0,#0x70
        0x0800062c:    4915        .I      LDR      r1,[pc,#84] ; [0x8000684] = 0x40020000
        0x0800062e:    6248        Hb      STR      r0,[r1,#0x24]
        0x08000630:    4608        .F      MOV      r0,r1
        0x08000632:    6800        .h      LDR      r0,[r0,#0]
        0x08000634:    f4402000    @..     ORR      r0,r0,#0x80000
        0x08000638:    6008        .`      STR      r0,[r1,#0]
        0x0800063a:    4608        .F      MOV      r0,r1
        0x0800063c:    6840        @h      LDR      r0,[r0,#4]
        0x0800063e:    f4202000     ..     BIC      r0,r0,#0x80000
        0x08000642:    6048        H`      STR      r0,[r1,#4]
        0x08000644:    4608        .F      MOV      r0,r1
        0x08000646:    6880        .h      LDR      r0,[r0,#8]
        0x08000648:    f4402000    @..     ORR      r0,r0,#0x80000
        0x0800064c:    6088        .`      STR      r0,[r1,#8]
        0x0800064e:    4608        .F      MOV      r0,r1
        0x08000650:    68c0        .h      LDR      r0,[r0,#0xc]
        0x08000652:    f4402080    @..     ORR      r0,r0,#0x40000
        0x08000656:    60c8        .`      STR      r0,[r1,#0xc]
        0x08000658:    480b        .H      LDR      r0,[pc,#44] ; [0x8000688] = 0x40011000
        0x0800065a:    6880        .h      LDR      r0,[r0,#8]
        0x0800065c:    f24021d9    @..!    MOV      r1,#0x2d9
        0x08000660:    4308        .C      ORRS     r0,r0,r1
        0x08000662:    4909        .I      LDR      r1,[pc,#36] ; [0x8000688] = 0x40011000
        0x08000664:    6088        .`      STR      r0,[r1,#8]
        0x08000666:    4608        .F      MOV      r0,r1
        0x08000668:    68c0        .h      LDR      r0,[r0,#0xc]
        0x0800066a:    f242010c    B...    MOV      r1,#0x200c
        0x0800066e:    4308        .C      ORRS     r0,r0,r1
        0x08000670:    4905        .I      LDR      r1,[pc,#20] ; [0x8000688] = 0x40011000
        0x08000672:    60c8        .`      STR      r0,[r1,#0xc]
        0x08000674:    4608        .F      MOV      r0,r1
        0x08000676:    69c0        .i      LDR      r0,[r0,#0x1c]
        0x08000678:    f0400001    @...    ORR      r0,r0,#1
        0x0800067c:    61c8        .a      STR      r0,[r1,#0x1c]
        0x0800067e:    4770        pG      BX       lr
    $d
        0x08000680:    40023830    08.@    DCD    1073887280
        0x08000684:    40020000    ...@    DCD    1073872896
        0x08000688:    40011000    ...@    DCD    1073811456
    $t
    i.UsageFault_Handler
    UsageFault_Handler
        0x0800068c:    bf00        ..      NOP      
        0x0800068e:    e7fe        ..      B        0x800068e ; UsageFault_Handler + 2
    i.__0printf$8
    __0printf$8
    __1printf$8
    __2printf
        0x08000690:    b40f        ..      PUSH     {r0-r3}
        0x08000692:    4b05        .K      LDR      r3,[pc,#20] ; [0x80006a8] = 0x8000b33
        0x08000694:    b510        ..      PUSH     {r4,lr}
        0x08000696:    a903        ..      ADD      r1,sp,#0xc
        0x08000698:    4a04        .J      LDR      r2,[pc,#16] ; [0x80006ac] = 0x2000000c
        0x0800069a:    9802        ..      LDR      r0,[sp,#8]
        0x0800069c:    f000f818    ....    BL       _printf_core ; 0x80006d0
        0x080006a0:    bc10        ..      POP      {r4}
        0x080006a2:    f85dfb14    ]...    LDR      pc,[sp],#0x14
    $d
        0x080006a6:    0000        ..      DCW    0
        0x080006a8:    08000b33    3...    DCD    134220595
        0x080006ac:    2000000c    ...     DCD    536870924
    $t
    i.__scatterload_copy
    __scatterload_copy
        0x080006b0:    e002        ..      B        0x80006b8 ; __scatterload_copy + 8
        0x080006b2:    c808        ..      LDM      r0!,{r3}
        0x080006b4:    1f12        ..      SUBS     r2,r2,#4
        0x080006b6:    c108        ..      STM      r1!,{r3}
        0x080006b8:    2a00        .*      CMP      r2,#0
        0x080006ba:    d1fa        ..      BNE      0x80006b2 ; __scatterload_copy + 2
        0x080006bc:    4770        pG      BX       lr
    i.__scatterload_null
    __scatterload_null
        0x080006be:    4770        pG      BX       lr
    i.__scatterload_zeroinit
    __scatterload_zeroinit
        0x080006c0:    2000        .       MOVS     r0,#0
        0x080006c2:    e001        ..      B        0x80006c8 ; __scatterload_zeroinit + 8
        0x080006c4:    c101        ..      STM      r1!,{r0}
        0x080006c6:    1f12        ..      SUBS     r2,r2,#4
        0x080006c8:    2a00        .*      CMP      r2,#0
        0x080006ca:    d1fb        ..      BNE      0x80006c4 ; __scatterload_zeroinit + 4
        0x080006cc:    4770        pG      BX       lr
        0x080006ce:    0000        ..      MOVS     r0,r0
    i._printf_core
    _printf_core
        0x080006d0:    e92d4fff    -..O    PUSH     {r0-r11,lr}
        0x080006d4:    b08d        ..      SUB      sp,sp,#0x34
        0x080006d6:    460f        .F      MOV      r7,r1
        0x080006d8:    4605        .F      MOV      r5,r0
        0x080006da:    2600        .&      MOVS     r6,#0
        0x080006dc:    e006        ..      B        0x80006ec ; _printf_core + 28
        0x080006de:    2825        %(      CMP      r0,#0x25
        0x080006e0:    d00b        ..      BEQ      0x80006fa ; _printf_core + 42
        0x080006e2:    e9dd120f    ....    LDRD     r1,r2,[sp,#0x3c]
        0x080006e6:    4790        .G      BLX      r2
        0x080006e8:    1c6d        m.      ADDS     r5,r5,#1
        0x080006ea:    1c76        v.      ADDS     r6,r6,#1
        0x080006ec:    7828        (x      LDRB     r0,[r5,#0]
        0x080006ee:    2800        .(      CMP      r0,#0
        0x080006f0:    d1f5        ..      BNE      0x80006de ; _printf_core + 14
        0x080006f2:    b011        ..      ADD      sp,sp,#0x44
        0x080006f4:    4630        0F      MOV      r0,r6
        0x080006f6:    e8bd8ff0    ....    POP      {r4-r11,pc}
        0x080006fa:    2400        .$      MOVS     r4,#0
        0x080006fc:    46a2        .F      MOV      r10,r4
        0x080006fe:    46a1        .F      MOV      r9,r4
        0x08000700:    2201        ."      MOVS     r2,#1
        0x08000702:    49ec        .I      LDR      r1,[pc,#944] ; [0x8000ab4] = 0x12809
        0x08000704:    e000        ..      B        0x8000708 ; _printf_core + 56
        0x08000706:    4304        .C      ORRS     r4,r4,r0
        0x08000708:    f8153f01    ...?    LDRB     r3,[r5,#1]!
        0x0800070c:    3b20         ;      SUBS     r3,r3,#0x20
        0x0800070e:    fa02f003    ....    LSL      r0,r2,r3
        0x08000712:    4208        .B      TST      r0,r1
        0x08000714:    d1f7        ..      BNE      0x8000706 ; _printf_core + 54
        0x08000716:    7828        (x      LDRB     r0,[r5,#0]
        0x08000718:    282a        *(      CMP      r0,#0x2a
        0x0800071a:    d010        ..      BEQ      0x800073e ; _printf_core + 110
        0x0800071c:    f06f022f    o./.    MVN      r2,#0x2f
        0x08000720:    7828        (x      LDRB     r0,[r5,#0]
        0x08000722:    f1a00130    ..0.    SUB      r1,r0,#0x30
        0x08000726:    2909        .)      CMP      r1,#9
        0x08000728:    d814        ..      BHI      0x8000754 ; _printf_core + 132
        0x0800072a:    eb0a018a    ....    ADD      r1,r10,r10,LSL #2
        0x0800072e:    eb020141    ..A.    ADD      r1,r2,r1,LSL #1
        0x08000732:    f0440402    D...    ORR      r4,r4,#2
        0x08000736:    eb000a01    ....    ADD      r10,r0,r1
        0x0800073a:    1c6d        m.      ADDS     r5,r5,#1
        0x0800073c:    e7f0        ..      B        0x8000720 ; _printf_core + 80
        0x0800073e:    cf01        ..      LDM      r7!,{r0}
        0x08000740:    ea5f0a00    _...    MOVS     r10,r0
        0x08000744:    d503        ..      BPL      0x800074e ; _printf_core + 126
        0x08000746:    f4445400    D..T    ORR      r4,r4,#0x2000
        0x0800074a:    f1ca0a00    ....    RSB      r10,r10,#0
        0x0800074e:    f0440402    D...    ORR      r4,r4,#2
        0x08000752:    1c6d        m.      ADDS     r5,r5,#1
        0x08000754:    7828        (x      LDRB     r0,[r5,#0]
        0x08000756:    282e        .(      CMP      r0,#0x2e
        0x08000758:    d117        ..      BNE      0x800078a ; _printf_core + 186
        0x0800075a:    f8150f01    ....    LDRB     r0,[r5,#1]!
        0x0800075e:    f0440404    D...    ORR      r4,r4,#4
        0x08000762:    282a        *(      CMP      r0,#0x2a
        0x08000764:    d00e        ..      BEQ      0x8000784 ; _printf_core + 180
        0x08000766:    f06f022f    o./.    MVN      r2,#0x2f
        0x0800076a:    7828        (x      LDRB     r0,[r5,#0]
        0x0800076c:    f1a00130    ..0.    SUB      r1,r0,#0x30
        0x08000770:    2909        .)      CMP      r1,#9
        0x08000772:    d80a        ..      BHI      0x800078a ; _printf_core + 186
        0x08000774:    eb090189    ....    ADD      r1,r9,r9,LSL #2
        0x08000778:    eb020141    ..A.    ADD      r1,r2,r1,LSL #1
        0x0800077c:    eb000901    ....    ADD      r9,r0,r1
        0x08000780:    1c6d        m.      ADDS     r5,r5,#1
        0x08000782:    e7f2        ..      B        0x800076a ; _printf_core + 154
        0x08000784:    f8579b04    W...    LDR      r9,[r7],#4
        0x08000788:    1c6d        m.      ADDS     r5,r5,#1
        0x0800078a:    7828        (x      LDRB     r0,[r5,#0]
        0x0800078c:    286c        l(      CMP      r0,#0x6c
        0x0800078e:    d00f        ..      BEQ      0x80007b0 ; _printf_core + 224
        0x08000790:    dc06        ..      BGT      0x80007a0 ; _printf_core + 208
        0x08000792:    284c        L(      CMP      r0,#0x4c
        0x08000794:    d017        ..      BEQ      0x80007c6 ; _printf_core + 246
        0x08000796:    2868        h(      CMP      r0,#0x68
        0x08000798:    d00d        ..      BEQ      0x80007b6 ; _printf_core + 230
        0x0800079a:    286a        j(      CMP      r0,#0x6a
        0x0800079c:    d114        ..      BNE      0x80007c8 ; _printf_core + 248
        0x0800079e:    e004        ..      B        0x80007aa ; _printf_core + 218
        0x080007a0:    2874        t(      CMP      r0,#0x74
        0x080007a2:    d010        ..      BEQ      0x80007c6 ; _printf_core + 246
        0x080007a4:    287a        z(      CMP      r0,#0x7a
        0x080007a6:    d10f        ..      BNE      0x80007c8 ; _printf_core + 248
        0x080007a8:    e00d        ..      B        0x80007c6 ; _printf_core + 246
        0x080007aa:    f4441400    D...    ORR      r4,r4,#0x200000
        0x080007ae:    e00a        ..      B        0x80007c6 ; _printf_core + 246
        0x080007b0:    f4441480    D...    ORR      r4,r4,#0x100000
        0x080007b4:    e001        ..      B        0x80007ba ; _printf_core + 234
        0x080007b6:    f4441440    D.@.    ORR      r4,r4,#0x300000
        0x080007ba:    7869        ix      LDRB     r1,[r5,#1]
        0x080007bc:    4281        .B      CMP      r1,r0
        0x080007be:    d102        ..      BNE      0x80007c6 ; _printf_core + 246
        0x080007c0:    f5041480    ....    ADD      r4,r4,#0x100000
        0x080007c4:    1c6d        m.      ADDS     r5,r5,#1
        0x080007c6:    1c6d        m.      ADDS     r5,r5,#1
        0x080007c8:    782a        *x      LDRB     r2,[r5,#0]
        0x080007ca:    2a6e        n*      CMP      r2,#0x6e
        0x080007cc:    d01f        ..      BEQ      0x800080e ; _printf_core + 318
        0x080007ce:    dc0c        ..      BGT      0x80007ea ; _printf_core + 282
        0x080007d0:    2a63        c*      CMP      r2,#0x63
        0x080007d2:    d031        1.      BEQ      0x8000838 ; _printf_core + 360
        0x080007d4:    dc04        ..      BGT      0x80007e0 ; _printf_core + 272
        0x080007d6:    2a00        .*      CMP      r2,#0
        0x080007d8:    d08b        ..      BEQ      0x80006f2 ; _printf_core + 34
        0x080007da:    2a58        X*      CMP      r2,#0x58
        0x080007dc:    d111        ..      BNE      0x8000802 ; _printf_core + 306
        0x080007de:    e0a3        ..      B        0x8000928 ; _printf_core + 600
        0x080007e0:    2a64        d*      CMP      r2,#0x64
        0x080007e2:    d068        h.      BEQ      0x80008b6 ; _printf_core + 486
        0x080007e4:    2a69        i*      CMP      r2,#0x69
        0x080007e6:    d10c        ..      BNE      0x8000802 ; _printf_core + 306
        0x080007e8:    e065        e.      B        0x80008b6 ; _printf_core + 486
        0x080007ea:    2a73        s*      CMP      r2,#0x73
        0x080007ec:    d02e        ..      BEQ      0x800084c ; _printf_core + 380
        0x080007ee:    dc04        ..      BGT      0x80007fa ; _printf_core + 298
        0x080007f0:    2a6f        o*      CMP      r2,#0x6f
        0x080007f2:    d073        s.      BEQ      0x80008dc ; _printf_core + 524
        0x080007f4:    2a70        p*      CMP      r2,#0x70
        0x080007f6:    d104        ..      BNE      0x8000802 ; _printf_core + 306
        0x080007f8:    e09b        ..      B        0x8000932 ; _printf_core + 610
        0x080007fa:    2a75        u*      CMP      r2,#0x75
        0x080007fc:    d06f        o.      BEQ      0x80008de ; _printf_core + 526
        0x080007fe:    2a78        x*      CMP      r2,#0x78
        0x08000800:    d06e        n.      BEQ      0x80008e0 ; _printf_core + 528
        0x08000802:    4610        .F      MOV      r0,r2
        0x08000804:    e9dd120f    ....    LDRD     r1,r2,[sp,#0x3c]
        0x08000808:    4790        .G      BLX      r2
        0x0800080a:    1c76        v.      ADDS     r6,r6,#1
        0x0800080c:    e150        P.      B        0x8000ab0 ; _printf_core + 992
        0x0800080e:    f3c45002    ...P    UBFX     r0,r4,#20,#3
        0x08000812:    2802        .(      CMP      r0,#2
        0x08000814:    d006        ..      BEQ      0x8000824 ; _printf_core + 340
        0x08000816:    2803        .(      CMP      r0,#3
        0x08000818:    d009        ..      BEQ      0x800082e ; _printf_core + 350
        0x0800081a:    2804        .(      CMP      r0,#4
        0x0800081c:    cf01        ..      LDM      r7!,{r0}
        0x0800081e:    d009        ..      BEQ      0x8000834 ; _printf_core + 356
        0x08000820:    6006        .`      STR      r6,[r0,#0]
        0x08000822:    e145        E.      B        0x8000ab0 ; _printf_core + 992
        0x08000824:    cf01        ..      LDM      r7!,{r0}
        0x08000826:    17f1        ..      ASRS     r1,r6,#31
        0x08000828:    e9c06100    ...a    STRD     r6,r1,[r0,#0]
        0x0800082c:    e140        @.      B        0x8000ab0 ; _printf_core + 992
        0x0800082e:    cf01        ..      LDM      r7!,{r0}
        0x08000830:    8006        ..      STRH     r6,[r0,#0]
        0x08000832:    e13d        =.      B        0x8000ab0 ; _printf_core + 992
        0x08000834:    7006        .p      STRB     r6,[r0,#0]
        0x08000836:    e13b        ;.      B        0x8000ab0 ; _printf_core + 992
        0x08000838:    f8170b04    ....    LDRB     r0,[r7],#4
        0x0800083c:    f88d0000    ....    STRB     r0,[sp,#0]
        0x08000840:    2000        .       MOVS     r0,#0
        0x08000842:    f88d0001    ....    STRB     r0,[sp,#1]
        0x08000846:    46eb        .F      MOV      r11,sp
        0x08000848:    2001        .       MOVS     r0,#1
        0x0800084a:    e003        ..      B        0x8000854 ; _printf_core + 388
        0x0800084c:    f857bb04    W...    LDR      r11,[r7],#4
        0x08000850:    f04f30ff    O..0    MOV      r0,#0xffffffff
        0x08000854:    0761        a.      LSLS     r1,r4,#29
        0x08000856:    f04f0100    O...    MOV      r1,#0
        0x0800085a:    d402        ..      BMI      0x8000862 ; _printf_core + 402
        0x0800085c:    e00d        ..      B        0x800087a ; _printf_core + 426
        0x0800085e:    f1080101    ....    ADD      r1,r8,#1
        0x08000862:    4688        .F      MOV      r8,r1
        0x08000864:    4549        IE      CMP      r1,r9
        0x08000866:    da0f        ..      BGE      0x8000888 ; _printf_core + 440
        0x08000868:    4580        .E      CMP      r8,r0
        0x0800086a:    dbf8        ..      BLT      0x800085e ; _printf_core + 398
        0x0800086c:    f81b1008    ....    LDRB     r1,[r11,r8]
        0x08000870:    2900        .)      CMP      r1,#0
        0x08000872:    d1f4        ..      BNE      0x800085e ; _printf_core + 398
        0x08000874:    e008        ..      B        0x8000888 ; _printf_core + 440
        0x08000876:    f1080101    ....    ADD      r1,r8,#1
        0x0800087a:    4688        .F      MOV      r8,r1
        0x0800087c:    4281        .B      CMP      r1,r0
        0x0800087e:    dbfa        ..      BLT      0x8000876 ; _printf_core + 422
        0x08000880:    f81b1008    ....    LDRB     r1,[r11,r8]
        0x08000884:    2900        .)      CMP      r1,#0
        0x08000886:    d1f6        ..      BNE      0x8000876 ; _printf_core + 422
        0x08000888:    e9dd230f    ...#    LDRD     r2,r3,[sp,#0x3c]
        0x0800088c:    ebaa0008    ....    SUB      r0,r10,r8
        0x08000890:    4681        .F      MOV      r9,r0
        0x08000892:    4621        !F      MOV      r1,r4
        0x08000894:    f000f936    ..6.    BL       _printf_pre_padding ; 0x8000b04
        0x08000898:    4430        0D      ADD      r0,r0,r6
        0x0800089a:    eb000608    ....    ADD      r6,r0,r8
        0x0800089e:    e004        ..      B        0x80008aa ; _printf_core + 474
        0x080008a0:    e9dd120f    ....    LDRD     r1,r2,[sp,#0x3c]
        0x080008a4:    f81b0b01    ....    LDRB     r0,[r11],#1
        0x080008a8:    4790        .G      BLX      r2
        0x080008aa:    f1b80801    ....    SUBS     r8,r8,#1
        0x080008ae:    d2f7        ..      BCS      0x80008a0 ; _printf_core + 464
        0x080008b0:    4621        !F      MOV      r1,r4
        0x080008b2:    4648        HF      MOV      r0,r9
        0x080008b4:    e0f7        ..      B        0x8000aa6 ; _printf_core + 982
        0x080008b6:    210a        .!      MOVS     r1,#0xa
        0x080008b8:    f3c45302    ...S    UBFX     r3,r4,#20,#3
        0x080008bc:    f04f0b00    O...    MOV      r11,#0
        0x080008c0:    9108        ..      STR      r1,[sp,#0x20]
        0x080008c2:    2b02        .+      CMP      r3,#2
        0x080008c4:    d004        ..      BEQ      0x80008d0 ; _printf_core + 512
        0x080008c6:    cf01        ..      LDM      r7!,{r0}
        0x080008c8:    17c1        ..      ASRS     r1,r0,#31
        0x080008ca:    2b03        .+      CMP      r3,#3
        0x080008cc:    d009        ..      BEQ      0x80008e2 ; _printf_core + 530
        0x080008ce:    e00a        ..      B        0x80008e6 ; _printf_core + 534
        0x080008d0:    1dff        ..      ADDS     r7,r7,#7
        0x080008d2:    f0270707    '...    BIC      r7,r7,#7
        0x080008d6:    e8f70102    ....    LDRD     r0,r1,[r7],#8
        0x080008da:    e008        ..      B        0x80008ee ; _printf_core + 542
        0x080008dc:    e032        2.      B        0x8000944 ; _printf_core + 628
        0x080008de:    e01f        ..      B        0x8000920 ; _printf_core + 592
        0x080008e0:    e020         .      B        0x8000924 ; _printf_core + 596
        0x080008e2:    b200        ..      SXTH     r0,r0
        0x080008e4:    17c1        ..      ASRS     r1,r0,#31
        0x080008e6:    2b04        .+      CMP      r3,#4
        0x080008e8:    d101        ..      BNE      0x80008ee ; _printf_core + 542
        0x080008ea:    b240        @.      SXTB     r0,r0
        0x080008ec:    17c1        ..      ASRS     r1,r0,#31
        0x080008ee:    1e03        ..      SUBS     r3,r0,#0
        0x080008f0:    f1710300    q...    SBCS     r3,r1,#0
        0x080008f4:    da07        ..      BGE      0x8000906 ; _printf_core + 566
        0x080008f6:    f04f0c00    O...    MOV      r12,#0
        0x080008fa:    ebd0000c    ....    RSBS     r0,r0,r12
        0x080008fe:    eb6c0101    l...    SBC      r1,r12,r1
        0x08000902:    232d        -#      MOVS     r3,#0x2d
        0x08000904:    e002        ..      B        0x800090c ; _printf_core + 572
        0x08000906:    0523        #.      LSLS     r3,r4,#20
        0x08000908:    d504        ..      BPL      0x8000914 ; _printf_core + 580
        0x0800090a:    232b        +#      MOVS     r3,#0x2b
        0x0800090c:    f88d3024    ..$0    STRB     r3,[sp,#0x24]
        0x08000910:    2301        .#      MOVS     r3,#1
        0x08000912:    e003        ..      B        0x800091c ; _printf_core + 588
        0x08000914:    07e3        ..      LSLS     r3,r4,#31
        0x08000916:    d001        ..      BEQ      0x800091c ; _printf_core + 588
        0x08000918:    2320         #      MOVS     r3,#0x20
        0x0800091a:    e7f7        ..      B        0x800090c ; _printf_core + 572
        0x0800091c:    4698        .F      MOV      r8,r3
        0x0800091e:    e058        X.      B        0x80009d2 ; _printf_core + 770
        0x08000920:    210a        .!      MOVS     r1,#0xa
        0x08000922:    e010        ..      B        0x8000946 ; _printf_core + 630
        0x08000924:    2110        .!      MOVS     r1,#0x10
        0x08000926:    e00e        ..      B        0x8000946 ; _printf_core + 630
        0x08000928:    2010        .       MOVS     r0,#0x10
        0x0800092a:    f04f0b00    O...    MOV      r11,#0
        0x0800092e:    9008        ..      STR      r0,[sp,#0x20]
        0x08000930:    e00c        ..      B        0x800094c ; _printf_core + 636
        0x08000932:    2110        .!      MOVS     r1,#0x10
        0x08000934:    f04f0b00    O...    MOV      r11,#0
        0x08000938:    f0440404    D...    ORR      r4,r4,#4
        0x0800093c:    f04f0908    O...    MOV      r9,#8
        0x08000940:    9108        ..      STR      r1,[sp,#0x20]
        0x08000942:    e003        ..      B        0x800094c ; _printf_core + 636
        0x08000944:    2108        .!      MOVS     r1,#8
        0x08000946:    f04f0b00    O...    MOV      r11,#0
        0x0800094a:    9108        ..      STR      r1,[sp,#0x20]
        0x0800094c:    f3c45302    ...S    UBFX     r3,r4,#20,#3
        0x08000950:    2b02        .+      CMP      r3,#2
        0x08000952:    d004        ..      BEQ      0x800095e ; _printf_core + 654
        0x08000954:    cf01        ..      LDM      r7!,{r0}
        0x08000956:    2100        .!      MOVS     r1,#0
        0x08000958:    2b03        .+      CMP      r3,#3
        0x0800095a:    d006        ..      BEQ      0x800096a ; _printf_core + 666
        0x0800095c:    e006        ..      B        0x800096c ; _printf_core + 668
        0x0800095e:    1dff        ..      ADDS     r7,r7,#7
        0x08000960:    f0270707    '...    BIC      r7,r7,#7
        0x08000964:    e8f70102    ....    LDRD     r0,r1,[r7],#8
        0x08000968:    e003        ..      B        0x8000972 ; _printf_core + 674
        0x0800096a:    b280        ..      UXTH     r0,r0
        0x0800096c:    2b04        .+      CMP      r3,#4
        0x0800096e:    d100        ..      BNE      0x8000972 ; _printf_core + 674
        0x08000970:    b2c0        ..      UXTB     r0,r0
        0x08000972:    f04f0800    O...    MOV      r8,#0
        0x08000976:    0723        #.      LSLS     r3,r4,#28
        0x08000978:    d52b        +.      BPL      0x80009d2 ; _printf_core + 770
        0x0800097a:    2a70        p*      CMP      r2,#0x70
        0x0800097c:    d007        ..      BEQ      0x800098e ; _printf_core + 702
        0x0800097e:    f8ddc020    .. .    LDR      r12,[sp,#0x20]
        0x08000982:    f08c0c10    ....    EOR      r12,r12,#0x10
        0x08000986:    ea5c0c0b    \...    ORRS     r12,r12,r11
        0x0800098a:    d005        ..      BEQ      0x8000998 ; _printf_core + 712
        0x0800098c:    e00e        ..      B        0x80009ac ; _printf_core + 732
        0x0800098e:    2340        @#      MOVS     r3,#0x40
        0x08000990:    f88d3024    ..$0    STRB     r3,[sp,#0x24]
        0x08000994:    2301        .#      MOVS     r3,#1
        0x08000996:    e008        ..      B        0x80009aa ; _printf_core + 730
        0x08000998:    ea500301    P...    ORRS     r3,r0,r1
        0x0800099c:    d006        ..      BEQ      0x80009ac ; _printf_core + 732
        0x0800099e:    2330        0#      MOVS     r3,#0x30
        0x080009a0:    f88d3024    ..$0    STRB     r3,[sp,#0x24]
        0x080009a4:    f88d2025    ..%     STRB     r2,[sp,#0x25]
        0x080009a8:    2302        .#      MOVS     r3,#2
        0x080009aa:    4698        .F      MOV      r8,r3
        0x080009ac:    f8ddc020    .. .    LDR      r12,[sp,#0x20]
        0x080009b0:    f08c0c08    ....    EOR      r12,r12,#8
        0x080009b4:    ea5c0c0b    \...    ORRS     r12,r12,r11
        0x080009b8:    d10b        ..      BNE      0x80009d2 ; _printf_core + 770
        0x080009ba:    ea500301    P...    ORRS     r3,r0,r1
        0x080009be:    d101        ..      BNE      0x80009c4 ; _printf_core + 756
        0x080009c0:    0763        c.      LSLS     r3,r4,#29
        0x080009c2:    d506        ..      BPL      0x80009d2 ; _printf_core + 770
        0x080009c4:    2330        0#      MOVS     r3,#0x30
        0x080009c6:    f88d3024    ..$0    STRB     r3,[sp,#0x24]
        0x080009ca:    f04f0801    O...    MOV      r8,#1
        0x080009ce:    f1a90901    ....    SUB      r9,r9,#1
        0x080009d2:    2a58        X*      CMP      r2,#0x58
        0x080009d4:    d004        ..      BEQ      0x80009e0 ; _printf_core + 784
        0x080009d6:    a238        8.      ADR      r2,{pc}+0xe2 ; 0x8000ab8
        0x080009d8:    920b        ..      STR      r2,[sp,#0x2c]
        0x080009da:    aa08        ..      ADD      r2,sp,#0x20
        0x080009dc:    920a        ..      STR      r2,[sp,#0x28]
        0x080009de:    e00b        ..      B        0x80009f8 ; _printf_core + 808
        0x080009e0:    a23a        :.      ADR      r2,{pc}+0xec ; 0x8000acc
        0x080009e2:    e7f9        ..      B        0x80009d8 ; _printf_core + 776
        0x080009e4:    465b        [F      MOV      r3,r11
        0x080009e6:    9a08        ..      LDR      r2,[sp,#0x20]
        0x080009e8:    f7fffbf0    ....    BL       __aeabi_uldivmod ; 0x80001cc
        0x080009ec:    9b0b        ..      LDR      r3,[sp,#0x2c]
        0x080009ee:    5c9b        .\      LDRB     r3,[r3,r2]
        0x080009f0:    9a0a        ..      LDR      r2,[sp,#0x28]
        0x080009f2:    1e52        R.      SUBS     r2,r2,#1
        0x080009f4:    920a        ..      STR      r2,[sp,#0x28]
        0x080009f6:    7013        .p      STRB     r3,[r2,#0]
        0x080009f8:    ea500201    P...    ORRS     r2,r0,r1
        0x080009fc:    d1f2        ..      BNE      0x80009e4 ; _printf_core + 788
        0x080009fe:    980a        ..      LDR      r0,[sp,#0x28]
        0x08000a00:    ebad0000    ....    SUB      r0,sp,r0
        0x08000a04:    f1000b20    .. .    ADD      r11,r0,#0x20
        0x08000a08:    0760        `.      LSLS     r0,r4,#29
        0x08000a0a:    d502        ..      BPL      0x8000a12 ; _printf_core + 834
        0x08000a0c:    f4243480    $..4    BIC      r4,r4,#0x10000
        0x08000a10:    e001        ..      B        0x8000a16 ; _printf_core + 838
        0x08000a12:    f04f0901    O...    MOV      r9,#1
        0x08000a16:    45d9        .E      CMP      r9,r11
        0x08000a18:    dd02        ..      BLE      0x8000a20 ; _printf_core + 848
        0x08000a1a:    eba9000b    ....    SUB      r0,r9,r11
        0x08000a1e:    e000        ..      B        0x8000a22 ; _printf_core + 850
        0x08000a20:    2000        .       MOVS     r0,#0
        0x08000a22:    eb00010b    ....    ADD      r1,r0,r11
        0x08000a26:    4441        AD      ADD      r1,r1,r8
        0x08000a28:    9008        ..      STR      r0,[sp,#0x20]
        0x08000a2a:    ebaa0a01    ....    SUB      r10,r10,r1
        0x08000a2e:    03e0        ..      LSLS     r0,r4,#15
        0x08000a30:    d406        ..      BMI      0x8000a40 ; _printf_core + 880
        0x08000a32:    e9dd230f    ...#    LDRD     r2,r3,[sp,#0x3c]
        0x08000a36:    4621        !F      MOV      r1,r4
        0x08000a38:    4650        PF      MOV      r0,r10
        0x08000a3a:    f000f863    ..c.    BL       _printf_pre_padding ; 0x8000b04
        0x08000a3e:    4406        .D      ADD      r6,r6,r0
        0x08000a40:    f04f0900    O...    MOV      r9,#0
        0x08000a44:    e008        ..      B        0x8000a58 ; _printf_core + 904
        0x08000a46:    a909        ..      ADD      r1,sp,#0x24
        0x08000a48:    f8110009    ....    LDRB     r0,[r1,r9]
        0x08000a4c:    e9dd120f    ....    LDRD     r1,r2,[sp,#0x3c]
        0x08000a50:    4790        .G      BLX      r2
        0x08000a52:    f1090901    ....    ADD      r9,r9,#1
        0x08000a56:    1c76        v.      ADDS     r6,r6,#1
        0x08000a58:    45c1        .E      CMP      r9,r8
        0x08000a5a:    dbf4        ..      BLT      0x8000a46 ; _printf_core + 886
        0x08000a5c:    03e0        ..      LSLS     r0,r4,#15
        0x08000a5e:    d50c        ..      BPL      0x8000a7a ; _printf_core + 938
        0x08000a60:    e9dd230f    ...#    LDRD     r2,r3,[sp,#0x3c]
        0x08000a64:    4621        !F      MOV      r1,r4
        0x08000a66:    4650        PF      MOV      r0,r10
        0x08000a68:    f000f84c    ..L.    BL       _printf_pre_padding ; 0x8000b04
        0x08000a6c:    4406        .D      ADD      r6,r6,r0
        0x08000a6e:    e004        ..      B        0x8000a7a ; _printf_core + 938
        0x08000a70:    e9dd120f    ....    LDRD     r1,r2,[sp,#0x3c]
        0x08000a74:    2030        0       MOVS     r0,#0x30
        0x08000a76:    4790        .G      BLX      r2
        0x08000a78:    1c76        v.      ADDS     r6,r6,#1
        0x08000a7a:    9908        ..      LDR      r1,[sp,#0x20]
        0x08000a7c:    1e48        H.      SUBS     r0,r1,#1
        0x08000a7e:    9008        ..      STR      r0,[sp,#0x20]
        0x08000a80:    2900        .)      CMP      r1,#0
        0x08000a82:    dcf5        ..      BGT      0x8000a70 ; _printf_core + 928
        0x08000a84:    e008        ..      B        0x8000a98 ; _printf_core + 968
        0x08000a86:    980a        ..      LDR      r0,[sp,#0x28]
        0x08000a88:    990a        ..      LDR      r1,[sp,#0x28]
        0x08000a8a:    7800        .x      LDRB     r0,[r0,#0]
        0x08000a8c:    1c49        I.      ADDS     r1,r1,#1
        0x08000a8e:    910a        ..      STR      r1,[sp,#0x28]
        0x08000a90:    e9dd120f    ....    LDRD     r1,r2,[sp,#0x3c]
        0x08000a94:    4790        .G      BLX      r2
        0x08000a96:    1c76        v.      ADDS     r6,r6,#1
        0x08000a98:    f1bb0100    ....    SUBS     r1,r11,#0
        0x08000a9c:    f1ab0b01    ....    SUB      r11,r11,#1
        0x08000aa0:    dcf1        ..      BGT      0x8000a86 ; _printf_core + 950
        0x08000aa2:    4621        !F      MOV      r1,r4
        0x08000aa4:    4650        PF      MOV      r0,r10
        0x08000aa6:    e9dd230f    ...#    LDRD     r2,r3,[sp,#0x3c]
        0x08000aaa:    f000f819    ....    BL       _printf_post_padding ; 0x8000ae0
        0x08000aae:    4406        .D      ADD      r6,r6,r0
        0x08000ab0:    1c6d        m.      ADDS     r5,r5,#1
        0x08000ab2:    e61b        ..      B        0x80006ec ; _printf_core + 28
    $d
        0x08000ab4:    00012809    .(..    DCD    75785
        0x08000ab8:    33323130    0123    DCD    858927408
        0x08000abc:    37363534    4567    DCD    926299444
        0x08000ac0:    62613938    89ab    DCD    1650538808
        0x08000ac4:    66656463    cdef    DCD    1717920867
        0x08000ac8:    00000000    ....    DCD    0
        0x08000acc:    33323130    0123    DCD    858927408
        0x08000ad0:    37363534    4567    DCD    926299444
        0x08000ad4:    42413938    89AB    DCD    1111570744
        0x08000ad8:    46454443    CDEF    DCD    1178944579
        0x08000adc:    00000000    ....    DCD    0
    $t
    i._printf_post_padding
    _printf_post_padding
        0x08000ae0:    e92d41f0    -..A    PUSH     {r4-r8,lr}
        0x08000ae4:    4604        .F      MOV      r4,r0
        0x08000ae6:    2500        .%      MOVS     r5,#0
        0x08000ae8:    461e        .F      MOV      r6,r3
        0x08000aea:    4617        .F      MOV      r7,r2
        0x08000aec:    0488        ..      LSLS     r0,r1,#18
        0x08000aee:    d404        ..      BMI      0x8000afa ; _printf_post_padding + 26
        0x08000af0:    e005        ..      B        0x8000afe ; _printf_post_padding + 30
        0x08000af2:    4639        9F      MOV      r1,r7
        0x08000af4:    2020                MOVS     r0,#0x20
        0x08000af6:    47b0        .G      BLX      r6
        0x08000af8:    1c6d        m.      ADDS     r5,r5,#1
        0x08000afa:    1e64        d.      SUBS     r4,r4,#1
        0x08000afc:    d5f9        ..      BPL      0x8000af2 ; _printf_post_padding + 18
        0x08000afe:    4628        (F      MOV      r0,r5
        0x08000b00:    e8bd81f0    ....    POP      {r4-r8,pc}
    i._printf_pre_padding
    _printf_pre_padding
        0x08000b04:    e92d41f0    -..A    PUSH     {r4-r8,lr}
        0x08000b08:    4604        .F      MOV      r4,r0
        0x08000b0a:    2500        .%      MOVS     r5,#0
        0x08000b0c:    461e        .F      MOV      r6,r3
        0x08000b0e:    4690        .F      MOV      r8,r2
        0x08000b10:    03c8        ..      LSLS     r0,r1,#15
        0x08000b12:    d501        ..      BPL      0x8000b18 ; _printf_pre_padding + 20
        0x08000b14:    2730        0'      MOVS     r7,#0x30
        0x08000b16:    e000        ..      B        0x8000b1a ; _printf_pre_padding + 22
        0x08000b18:    2720         '      MOVS     r7,#0x20
        0x08000b1a:    0488        ..      LSLS     r0,r1,#18
        0x08000b1c:    d504        ..      BPL      0x8000b28 ; _printf_pre_padding + 36
        0x08000b1e:    e005        ..      B        0x8000b2c ; _printf_pre_padding + 40
        0x08000b20:    4641        AF      MOV      r1,r8
        0x08000b22:    4638        8F      MOV      r0,r7
        0x08000b24:    47b0        .G      BLX      r6
        0x08000b26:    1c6d        m.      ADDS     r5,r5,#1
        0x08000b28:    1e64        d.      SUBS     r4,r4,#1
        0x08000b2a:    d5f9        ..      BPL      0x8000b20 ; _printf_pre_padding + 28
        0x08000b2c:    4628        (F      MOV      r0,r5
        0x08000b2e:    e8bd81f0    ....    POP      {r4-r8,pc}
    i.fputc
    fputc
        0x08000b32:    b510        ..      PUSH     {r4,lr}
        0x08000b34:    4603        .F      MOV      r3,r0
        0x08000b36:    460c        .F      MOV      r4,r1
        0x08000b38:    b2d8        ..      UXTB     r0,r3
        0x08000b3a:    f7fffd57    ..W.    BL       UartPutc ; 0x80005ec
        0x08000b3e:    bd10        ..      POP      {r4,pc}
    i.main
    main
        0x08000b40:    b50e        ..      PUSH     {r1-r3,lr}
        0x08000b42:    f7fffd61    ..a.    BL       UartStdOutInit ; 0x8000608
        0x08000b46:    a048        H.      ADR      r0,{pc}+0x122 ; 0x8000c68
        0x08000b48:    f7fffda2    ....    BL       __0printf$8 ; 0x8000690
        0x08000b4c:    484a        JH      LDR      r0,[pc,#296] ; [0x8000c78] = 0x40023830
        0x08000b4e:    6800        .h      LDR      r0,[r0,#0]
        0x08000b50:    f0400007    @...    ORR      r0,r0,#7
        0x08000b54:    4948        HI      LDR      r1,[pc,#288] ; [0x8000c78] = 0x40023830
        0x08000b56:    6008        .`      STR      r0,[r1,#0]
        0x08000b58:    4847        GH      LDR      r0,[pc,#284] ; [0x8000c78] = 0x40023830
        0x08000b5a:    3830        08      SUBS     r0,r0,#0x30
        0x08000b5c:    6800        .h      LDR      r0,[r0,#0]
        0x08000b5e:    f0406080    @..`    ORR      r0,r0,#0x4000000
        0x08000b62:    4945        EI      LDR      r1,[pc,#276] ; [0x8000c78] = 0x40023830
        0x08000b64:    3930        09      SUBS     r1,r1,#0x30
        0x08000b66:    6008        .`      STR      r0,[r1,#0]
        0x08000b68:    2205        ."      MOVS     r2,#5
        0x08000b6a:    2109        .!      MOVS     r1,#9
        0x08000b6c:    4843        CH      LDR      r0,[pc,#268] ; [0x8000c7c] = 0x40020400
        0x08000b6e:    f7fffbdb    ....    BL       GPIO_PinAFConfig ; 0x8000328
        0x08000b72:    2205        ."      MOVS     r2,#5
        0x08000b74:    210a        .!      MOVS     r1,#0xa
        0x08000b76:    4841        AH      LDR      r0,[pc,#260] ; [0x8000c7c] = 0x40020400
        0x08000b78:    f7fffbd6    ....    BL       GPIO_PinAFConfig ; 0x8000328
        0x08000b7c:    2010        .       MOVS     r0,#0x10
        0x08000b7e:    9000        ..      STR      r0,[sp,#0]
        0x08000b80:    2002        .       MOVS     r0,#2
        0x08000b82:    f88d0004    ....    STRB     r0,[sp,#4]
        0x08000b86:    2000        .       MOVS     r0,#0
        0x08000b88:    f88d0006    ....    STRB     r0,[sp,#6]
        0x08000b8c:    2002        .       MOVS     r0,#2
        0x08000b8e:    f88d0007    ....    STRB     r0,[sp,#7]
        0x08000b92:    4669        iF      MOV      r1,sp
        0x08000b94:    483a        :H      LDR      r0,[pc,#232] ; [0x8000c80] = 0x40020000
        0x08000b96:    f7fffb7f    ....    BL       GPIO_Init ; 0x8000298
        0x08000b9a:    f44f60c0    O..`    MOV      r0,#0x600
        0x08000b9e:    9000        ..      STR      r0,[sp,#0]
        0x08000ba0:    4669        iF      MOV      r1,sp
        0x08000ba2:    4836        6H      LDR      r0,[pc,#216] ; [0x8000c7c] = 0x40020400
        0x08000ba4:    f7fffb78    ..x.    BL       GPIO_Init ; 0x8000298
        0x08000ba8:    2008        .       MOVS     r0,#8
        0x08000baa:    9000        ..      STR      r0,[sp,#0]
        0x08000bac:    4669        iF      MOV      r1,sp
        0x08000bae:    4835        5H      LDR      r0,[pc,#212] ; [0x8000c84] = 0x40020800
        0x08000bb0:    f7fffb72    ..r.    BL       GPIO_Init ; 0x8000298
        0x08000bb4:    4830        0H      LDR      r0,[pc,#192] ; [0x8000c78] = 0x40023830
        0x08000bb6:    3010        .0      ADDS     r0,r0,#0x10
        0x08000bb8:    6800        .h      LDR      r0,[r0,#0]
        0x08000bba:    f4404080    @..@    ORR      r0,r0,#0x4000
        0x08000bbe:    492e        .I      LDR      r1,[pc,#184] ; [0x8000c78] = 0x40023830
        0x08000bc0:    3110        .1      ADDS     r1,r1,#0x10
        0x08000bc2:    6008        .`      STR      r0,[r1,#0]
        0x08000bc4:    4830        0H      LDR      r0,[pc,#192] ; [0x8000c88] = 0x20000000
        0x08000bc6:    6800        .h      LDR      r0,[r0,#0]
        0x08000bc8:    8b80        ..      LDRH     r0,[r0,#0x1c]
        0x08000bca:    f4206080     ..`    BIC      r0,r0,#0x400
        0x08000bce:    492e        .I      LDR      r1,[pc,#184] ; [0x8000c88] = 0x20000000
        0x08000bd0:    6809        .h      LDR      r1,[r1,#0]
        0x08000bd2:    8388        ..      STRH     r0,[r1,#0x1c]
        0x08000bd4:    2000        .       MOVS     r0,#0
        0x08000bd6:    492c        ,I      LDR      r1,[pc,#176] ; [0x8000c88] = 0x20000000
        0x08000bd8:    6809        .h      LDR      r1,[r1,#0]
        0x08000bda:    8388        ..      STRH     r0,[r1,#0x1c]
        0x08000bdc:    482a        *H      LDR      r0,[pc,#168] ; [0x8000c88] = 0x20000000
        0x08000bde:    6800        .h      LDR      r0,[r0,#0]
        0x08000be0:    8b80        ..      LDRH     r0,[r0,#0x1c]
        0x08000be2:    f4406000    @..`    ORR      r0,r0,#0x800
        0x08000be6:    4928        (I      LDR      r1,[pc,#160] ; [0x8000c88] = 0x20000000
        0x08000be8:    6809        .h      LDR      r1,[r1,#0]
        0x08000bea:    8388        ..      STRH     r0,[r1,#0x1c]
        0x08000bec:    2000        .       MOVS     r0,#0
        0x08000bee:    4926        &I      LDR      r1,[pc,#152] ; [0x8000c88] = 0x20000000
        0x08000bf0:    6809        .h      LDR      r1,[r1,#0]
        0x08000bf2:    8408        ..      STRH     r0,[r1,#0x20]
        0x08000bf4:    4824        $H      LDR      r0,[pc,#144] ; [0x8000c88] = 0x20000000
        0x08000bf6:    6800        .h      LDR      r0,[r0,#0]
        0x08000bf8:    8c00        ..      LDRH     r0,[r0,#0x20]
        0x08000bfa:    f0400027    @.'.    ORR      r0,r0,#0x27
        0x08000bfe:    4922        "I      LDR      r1,[pc,#136] ; [0x8000c88] = 0x20000000
        0x08000c00:    6809        .h      LDR      r1,[r1,#0]
        0x08000c02:    8408        ..      STRH     r0,[r1,#0x20]
        0x08000c04:    4820         H      LDR      r0,[pc,#128] ; [0x8000c88] = 0x20000000
        0x08000c06:    6800        .h      LDR      r0,[r0,#0]
        0x08000c08:    8c00        ..      LDRH     r0,[r0,#0x20]
        0x08000c0a:    f4407080    @..p    ORR      r0,r0,#0x100
        0x08000c0e:    491e        .I      LDR      r1,[pc,#120] ; [0x8000c88] = 0x20000000
        0x08000c10:    6809        .h      LDR      r1,[r1,#0]
        0x08000c12:    8408        ..      STRH     r0,[r1,#0x20]
        0x08000c14:    481c        .H      LDR      r0,[pc,#112] ; [0x8000c88] = 0x20000000
        0x08000c16:    6800        .h      LDR      r0,[r0,#0]
        0x08000c18:    8b80        ..      LDRH     r0,[r0,#0x1c]
        0x08000c1a:    f4406080    @..`    ORR      r0,r0,#0x400
        0x08000c1e:    491a        .I      LDR      r1,[pc,#104] ; [0x8000c88] = 0x20000000
        0x08000c20:    6809        .h      LDR      r1,[r1,#0]
        0x08000c22:    8388        ..      STRH     r0,[r1,#0x1c]
        0x08000c24:    4818        .H      LDR      r0,[pc,#96] ; [0x8000c88] = 0x20000000
        0x08000c26:    6800        .h      LDR      r0,[r0,#0]
        0x08000c28:    8880        ..      LDRH     r0,[r0,#4]
        0x08000c2a:    f0400040    @.@.    ORR      r0,r0,#0x40
        0x08000c2e:    4916        .I      LDR      r1,[pc,#88] ; [0x8000c88] = 0x20000000
        0x08000c30:    6809        .h      LDR      r1,[r1,#0]
        0x08000c32:    8088        ..      STRH     r0,[r1,#4]
        0x08000c34:    4814        .H      LDR      r0,[pc,#80] ; [0x8000c88] = 0x20000000
        0x08000c36:    6800        .h      LDR      r0,[r0,#0]
        0x08000c38:    8880        ..      LDRH     r0,[r0,#4]
        0x08000c3a:    f0400020    @. .    ORR      r0,r0,#0x20
        0x08000c3e:    4912        .I      LDR      r1,[pc,#72] ; [0x8000c88] = 0x20000000
        0x08000c40:    6809        .h      LDR      r1,[r1,#0]
        0x08000c42:    8088        ..      STRH     r0,[r1,#4]
        0x08000c44:    2024        $       MOVS     r0,#0x24
        0x08000c46:    f88d0008    ....    STRB     r0,[sp,#8]
        0x08000c4a:    2000        .       MOVS     r0,#0
        0x08000c4c:    f88d0009    ....    STRB     r0,[sp,#9]
        0x08000c50:    2002        .       MOVS     r0,#2
        0x08000c52:    f88d000a    ....    STRB     r0,[sp,#0xa]
        0x08000c56:    2001        .       MOVS     r0,#1
        0x08000c58:    f88d000b    ....    STRB     r0,[sp,#0xb]
        0x08000c5c:    a802        ..      ADD      r0,sp,#8
        0x08000c5e:    f7fffb8b    ....    BL       NVIC_Init ; 0x8000378
        0x08000c62:    bf00        ..      NOP      
        0x08000c64:    e7fe        ..      B        0x8000c64 ; main + 292
    $d
        0x08000c66:    0000        ..      DCW    0
        0x08000c68:    20733269    i2s     DCD    544420457
        0x08000c6c:    20524455    UDR     DCD    542262357
        0x08000c70:    74736574    test    DCD    1953719668
        0x08000c74:    00000a0d    ....    DCD    2573
        0x08000c78:    40023830    08.@    DCD    1073887280
        0x08000c7c:    40020400    ...@    DCD    1073873920
        0x08000c80:    40020000    ...@    DCD    1073872896
        0x08000c84:    40020800    ...@    DCD    1073874944
        0x08000c88:    20000000    ...     DCD    536870912
    $d.realdata
    Region$$Table$$Base
        0x08000c8c:    08000cac    ....    DCD    134220972
        0x08000c90:    20000000    ...     DCD    536870912
        0x08000c94:    00000010    ....    DCD    16
        0x08000c98:    080006b0    ....    DCD    134219440
        0x08000c9c:    08000cbc    ....    DCD    134220988
        0x08000ca0:    20000010    ...     DCD    536870928
        0x08000ca4:    00001000    ....    DCD    4096
        0x08000ca8:    080006c0    ....    DCD    134219456
    Region$$Table$$Limit

** Section #2 'RW_IRAM1' (SHT_PROGBITS) [SHF_ALLOC + SHF_WRITE]
    Size   : 16 bytes (alignment 4)
    Address: 0x20000000


** Section #3 'RW_IRAM1' (SHT_NOBITS) [SHF_ALLOC + SHF_WRITE]
    Size   : 4096 bytes (alignment 8)
    Address: 0x20000010


** Section #4 '.debug_abbrev' (SHT_PROGBITS)
    Size   : 1476 bytes


** Section #5 '.debug_frame' (SHT_PROGBITS)
    Size   : 1776 bytes


** Section #6 '.debug_info' (SHT_PROGBITS)
    Size   : 29952 bytes


** Section #7 '.debug_line' (SHT_PROGBITS)
    Size   : 3580 bytes


** Section #8 '.debug_loc' (SHT_PROGBITS)
    Size   : 764 bytes


** Section #9 '.debug_macinfo' (SHT_PROGBITS)
    Size   : 409924 bytes


** Section #10 '.debug_pubnames' (SHT_PROGBITS)
    Size   : 841 bytes


** Section #11 '.symtab' (SHT_SYMTAB)
    Size   : 5856 bytes (alignment 4)
    String table #12 '.strtab'
    Last local symbol no. 215


** Section #12 '.strtab' (SHT_STRTAB)
    Size   : 6852 bytes


** Section #13 '.note' (SHT_NOTE)
    Size   : 28 bytes (alignment 4)


** Section #14 '.comment' (SHT_PROGBITS)
    Size   : 53648 bytes


** Section #15 '.shstrtab' (SHT_STRTAB)
    Size   : 156 bytes


